target datalayout = "e-m:e-p270:32:32-p271:32:32-p272:64:64-i64:64-i128:128-f80:128-n8:16:32:64-S128"
target triple = "x86_64-pc-linux-gnu"

%class.LogTagSet = type { ptr, i64, [5 x i32], [4 x i8], %class.LogOutputList, %class.LogDecorators, ptr }
%class.LogOutputList = type <{ [6 x ptr], i32, [4 x i8] }>
%class.LogDecorators = type { i32 }
%"class.metaspace::MetaspaceArena" = type { ptr, ptr, %"class.metaspace::MetachunkList", ptr, ptr, ptr }
%"class.metaspace::MetachunkList" = type <{ ptr, %"class.metaspace::AbstractCounter", [4 x i8] }>
%"class.metaspace::AbstractCounter" = type { i32 }
%"class.metaspace::FreeBlocks" = type { %"class.metaspace::BinListImpl", %"class.metaspace::BlockTree", i64 }
%"class.metaspace::BinListImpl" = type { [32 x ptr], %"class.metaspace::AbstractMemoryRangeCounter" }
%"class.metaspace::AbstractMemoryRangeCounter" = type { %"class.metaspace::AbstractCounter", %"class.metaspace::AbstractCounter.1" }
%"class.metaspace::AbstractCounter.1" = type { i64 }
%"class.metaspace::BlockTree" = type { ptr, %"class.metaspace::AbstractMemoryRangeCounter" }

@.str.20 = private unnamed_addr constant [61 x i8] c"Arena @0x%016lx (%s): deallocating 0x%016lx, word size: %lu.\00", align 1
@_ZN16LogTagSetMappingILN6LogTag4typeE84ELS1_0ELS1_0ELS1_0ELS1_0ELS1_0EE7_tagsetE = linkonce_odr hidden global %class.LogTagSet zeroinitializer, comdat, align 8

; Function Attrs: mustprogress nounwind uwtable
define linkonce_odr hidden void @_ZN9metaspace15AbstractCounterImEC2Ev(ptr noundef nonnull align 8 dereferenceable(8) %0) unnamed_addr #1 comdat align 2 {
  %2 = alloca ptr, align 8
  store ptr %0, ptr %2, align 8
  %3 = load ptr, ptr %2, align 8
  %4 = getelementptr inbounds %"class.metaspace::AbstractCounter.1", ptr %3, i32 0, i32 0
  store i64 0, ptr %4, align 8
  ret void
}

; Function Attrs: mustprogress nounwind uwtable
define linkonce_odr hidden void @_ZN9metaspace15AbstractCounterIjEC2Ev(ptr noundef nonnull align 4 dereferenceable(4) %0) unnamed_addr #1 comdat align 2 {
  %2 = alloca ptr, align 8
  store ptr %0, ptr %2, align 8
  %3 = load ptr, ptr %2, align 8
  %4 = getelementptr inbounds %"class.metaspace::AbstractCounter", ptr %3, i32 0, i32 0
  store i32 0, ptr %4, align 4
  ret void
}

; Function Attrs: mustprogress nounwind uwtable
define linkonce_odr hidden void @_ZN9metaspace26AbstractMemoryRangeCounterIjmEC2Ev(ptr noundef nonnull align 8 dereferenceable(16) %0) unnamed_addr #1 comdat align 2 {
  %2 = alloca ptr, align 8
  store ptr %0, ptr %2, align 8
  %3 = load ptr, ptr %2, align 8
  %4 = getelementptr inbounds %"class.metaspace::AbstractMemoryRangeCounter", ptr %3, i32 0, i32 0
  call void @_ZN9metaspace15AbstractCounterIjEC2Ev(ptr noundef nonnull align 4 dereferenceable(4) %4)
  %5 = getelementptr inbounds %"class.metaspace::AbstractMemoryRangeCounter", ptr %3, i32 0, i32 1
  call void @_ZN9metaspace15AbstractCounterImEC2Ev(ptr noundef nonnull align 8 dereferenceable(8) %5)
  ret void
}

; Function Attrs: mustprogress nounwind uwtable
define linkonce_odr hidden void @_ZN9metaspace9BlockTreeC2Ev(ptr noundef nonnull align 8 dereferenceable(24) %0) unnamed_addr #1 comdat align 2 {
  %2 = alloca ptr, align 8
  store ptr %0, ptr %2, align 8
  %3 = load ptr, ptr %2, align 8
  %4 = getelementptr inbounds %"class.metaspace::BlockTree", ptr %3, i32 0, i32 0
  store ptr null, ptr %4, align 8
  %5 = getelementptr inbounds %"class.metaspace::BlockTree", ptr %3, i32 0, i32 1
  call void @_ZN9metaspace26AbstractMemoryRangeCounterIjmEC2Ev(ptr noundef nonnull align 8 dereferenceable(16) %5)
  ret void
}

; Function Attrs: mustprogress nounwind uwtable
define linkonce_odr hidden void @_ZN9metaspace11BinListImplILi32EEC2Ev(ptr noundef nonnull align 8 dereferenceable(272) %0) unnamed_addr #1 comdat align 2 {
  %2 = alloca ptr, align 8
  %3 = alloca i32, align 4
  store ptr %0, ptr %2, align 8
  %4 = load ptr, ptr %2, align 8
  %5 = getelementptr inbounds %"class.metaspace::BinListImpl", ptr %4, i32 0, i32 1
  call void @_ZN9metaspace26AbstractMemoryRangeCounterIjmEC2Ev(ptr noundef nonnull align 8 dereferenceable(16) %5)
  store i32 0, ptr %3, align 4
  br label %6

6:                                                ; preds = %14, %1
  %7 = load i32, ptr %3, align 4
  %8 = icmp slt i32 %7, 32
  br i1 %8, label %9, label %17

9:                                                ; preds = %6
  %10 = getelementptr inbounds %"class.metaspace::BinListImpl", ptr %4, i32 0, i32 0
  %11 = load i32, ptr %3, align 4
  %12 = sext i32 %11 to i64
  %13 = getelementptr inbounds [32 x ptr], ptr %10, i64 0, i64 %12
  store ptr null, ptr %13, align 8
  br label %14

14:                                               ; preds = %9
  %15 = load i32, ptr %3, align 4
  %16 = add nsw i32 %15, 1
  store i32 %16, ptr %3, align 4
  br label %6, !llvm.loop !10

17:                                               ; preds = %6
  ret void
}

; Function Attrs: mustprogress nounwind uwtable
define linkonce_odr hidden noundef zeroext i1 @_ZNK13LogOutputList8is_levelEN8LogLevel4typeE(ptr noundef nonnull align 8 dereferenceable(52) %0, i32 noundef %1) #1 comdat align 2 {
  %3 = alloca ptr, align 8
  %4 = alloca i32, align 4
  store ptr %0, ptr %3, align 8
  store i32 %1, ptr %4, align 4
  %5 = load ptr, ptr %3, align 8
  %6 = getelementptr inbounds %class.LogOutputList, ptr %5, i32 0, i32 0
  %7 = load i32, ptr %4, align 4
  %8 = zext i32 %7 to i64
  %9 = getelementptr inbounds [6 x ptr], ptr %6, i64 0, i64 %8
  %10 = load volatile ptr, ptr %9, align 8
  %11 = icmp ne ptr %10, null
  ret i1 %11
}

; Function Attrs: mustprogress nounwind uwtable
define linkonce_odr hidden void @_ZN9metaspace10FreeBlocksC2Ev(ptr noundef nonnull align 8 dereferenceable(304) %0) unnamed_addr #1 comdat align 2 {
  %2 = alloca ptr, align 8
  store ptr %0, ptr %2, align 8
  %3 = load ptr, ptr %2, align 8
  %4 = getelementptr inbounds %"class.metaspace::FreeBlocks", ptr %3, i32 0, i32 0
  call void @_ZN9metaspace11BinListImplILi32EEC2Ev(ptr noundef nonnull align 8 dereferenceable(272) %4)
  %5 = getelementptr inbounds %"class.metaspace::FreeBlocks", ptr %3, i32 0, i32 1
  call void @_ZN9metaspace9BlockTreeC2Ev(ptr noundef nonnull align 8 dereferenceable(24) %5)
  %6 = getelementptr inbounds %"class.metaspace::FreeBlocks", ptr %3, i32 0, i32 2
  store i64 32, ptr %6, align 8
  ret void
}

; Function Attrs: mustprogress nounwind uwtable
define linkonce_odr hidden noundef zeroext i1 @_ZNK9LogTagSet8is_levelEN8LogLevel4typeE(ptr noundef nonnull align 8 dereferenceable(112) %0, i32 noundef %1) #1 comdat align 2 {
  %3 = alloca ptr, align 8
  %4 = alloca i32, align 4
  store ptr %0, ptr %3, align 8
  store i32 %1, ptr %4, align 4
  %5 = load ptr, ptr %3, align 8
  %6 = getelementptr inbounds %class.LogTagSet, ptr %5, i32 0, i32 4
  %7 = load i32, ptr %4, align 4
  %8 = call noundef zeroext i1 @_ZNK13LogOutputList8is_levelEN8LogLevel4typeE(ptr noundef nonnull align 8 dereferenceable(52) %6, i32 noundef %7)
  ret i1 %8
}

; Function Attrs: mustprogress nounwind uwtable
define linkonce_odr hidden noundef nonnull align 8 dereferenceable(112) ptr @_ZN16LogTagSetMappingILN6LogTag4typeE84ELS1_0ELS1_0ELS1_0ELS1_0ELS1_0EE6tagsetEv() #1 comdat align 2 {
  ret ptr @_ZN16LogTagSetMappingILN6LogTag4typeE84ELS1_0ELS1_0ELS1_0ELS1_0ELS1_0EE7_tagsetE
}

; Function Attrs: mustprogress nounwind uwtable
define hidden void @_ZN9metaspace14MetaspaceArena21add_allocation_to_fblEPP12MetaWordImplm(ptr noundef nonnull align 8 dereferenceable(56) %0, ptr noundef %1, i64 noundef %2) #1 align 2 {
  %4 = alloca i64, align 8
  %5 = alloca i8, align 1
  %6 = alloca i64, align 8
  %7 = alloca ptr, align 8
  %8 = alloca ptr, align 8
  %9 = alloca i64, align 8
  store ptr %0, ptr %7, align 8
  store ptr %1, ptr %8, align 8
  store i64 %2, ptr %9, align 8
  %10 = load ptr, ptr %7, align 8
  %11 = getelementptr inbounds %"class.metaspace::MetaspaceArena", ptr %10, i32 0, i32 3
  %12 = load ptr, ptr %11, align 8
  %13 = icmp eq ptr %12, null
  br i1 %13, label %14, label %20

14:                                               ; preds = %3
  store i64 304, ptr %6, align 8
  %15 = load i64, ptr %6, align 8
  store i64 %15, ptr %4, align 8
  store i8 24, ptr %5, align 1
  %16 = load i64, ptr %4, align 8
  %17 = load i8, ptr %5, align 1
  %18 = call noundef ptr @_Z12AllocateHeapm8MEMFLAGSN17AllocFailStrategy13AllocFailEnumE(i64 noundef %16, i8 noundef zeroext %17, i32 noundef 0) #6
  call void @llvm.memset.p0.i64(ptr align 8 %18, i8 0, i64 304, i1 false)
  call void @_ZN9metaspace10FreeBlocksC2Ev(ptr noundef nonnull align 8 dereferenceable(304) %18)
  %19 = getelementptr inbounds %"class.metaspace::MetaspaceArena", ptr %10, i32 0, i32 3
  store ptr %18, ptr %19, align 8
  br label %20

20:                                               ; preds = %14, %3
  %21 = getelementptr inbounds %"class.metaspace::MetaspaceArena", ptr %10, i32 0, i32 3
  %22 = load ptr, ptr %21, align 8
  %23 = load ptr, ptr %8, align 8
  %24 = load i64, ptr %9, align 8
  call void @_ZN9metaspace10FreeBlocks9add_blockEPP12MetaWordImplm(ptr noundef nonnull align 8 dereferenceable(304) %22, ptr noundef %23, i64 noundef %24)
  ret void
}

; Function Attrs: mustprogress nounwind uwtable
define linkonce_odr hidden noundef i64 @_ZN9metaspace41get_raw_word_size_for_requested_word_sizeEm(i64 noundef %0) #1 comdat {
  %2 = alloca i64, align 8
  store i64 %0, ptr %2, align 8
  %3 = load i64, ptr %2, align 8
  ret i64 %3
}

; Function Attrs: mustprogress nounwind uwtable
define linkonce_odr hidden noundef i64 @_Z3p2iPVKv(ptr noundef %0) #1 comdat {
  %2 = alloca ptr, align 8
  store ptr %0, ptr %2, align 8
  %3 = load ptr, ptr %2, align 8
  %4 = ptrtoint ptr %3 to i64
  ret i64 %4
}

; Function Attrs: mustprogress nounwind uwtable
define linkonce_odr hidden noundef zeroext i1 @_ZN7LogImplILN6LogTag4typeE84ELS1_0ELS1_0ELS1_0ELS1_0ELS1_0EE8is_levelEN8LogLevel4typeE(i32 noundef %0) #1 comdat align 2 {
  %2 = alloca i32, align 4
  store i32 %0, ptr %2, align 4
  %3 = call noundef nonnull align 8 dereferenceable(112) ptr @_ZN16LogTagSetMappingILN6LogTag4typeE84ELS1_0ELS1_0ELS1_0ELS1_0ELS1_0EE6tagsetEv()
  %4 = load i32, ptr %2, align 4
  %5 = call noundef zeroext i1 @_ZNK9LogTagSet8is_levelEN8LogLevel4typeE(ptr noundef nonnull align 8 dereferenceable(112) %3, i32 noundef %4)
  ret i1 %5
}

; Function Attrs: mustprogress nounwind uwtable
define hidden void @_ZN9metaspace14MetaspaceArena10deallocateEPP12MetaWordImplm(ptr noundef nonnull align 8 dereferenceable(56) %0, ptr noundef %1, i64 noundef %2) #1 align 2 {
  %4 = alloca ptr, align 8
  %5 = alloca ptr, align 8
  %6 = alloca i64, align 8
  %7 = alloca i64, align 8
  store ptr %0, ptr %4, align 8
  store ptr %1, ptr %5, align 8
  store i64 %2, ptr %6, align 8
  %8 = load ptr, ptr %4, align 8
  %9 = call noundef zeroext i1 @_ZN7LogImplILN6LogTag4typeE84ELS1_0ELS1_0ELS1_0ELS1_0ELS1_0EE8is_levelEN8LogLevel4typeE(i32 noundef 1)
  br i1 %9, label %11, label %10

10:                                               ; preds = %3
  br label %18

11:                                               ; preds = %3
  %12 = call noundef i64 @_Z3p2iPVKv(ptr noundef %8)
  %13 = getelementptr inbounds %"class.metaspace::MetaspaceArena", ptr %8, i32 0, i32 5
  %14 = load ptr, ptr %13, align 8
  %15 = load ptr, ptr %5, align 8
  %16 = call noundef i64 @_Z3p2iPVKv(ptr noundef %15)
  %17 = load i64, ptr %6, align 8
  call void (ptr, ...) @_ZN7LogImplILN6LogTag4typeE84ELS1_0ELS1_0ELS1_0ELS1_0ELS1_0EE5writeILN8LogLevel4typeE1EEEvPKcz(ptr noundef @.str.20, i64 noundef %12, ptr noundef %14, i64 noundef %16, i64 noundef %17)
  br label %18

18:                                               ; preds = %11, %10
  %19 = load i64, ptr %6, align 8
  %20 = call noundef i64 @_ZN9metaspace41get_raw_word_size_for_requested_word_sizeEm(i64 noundef %19)
  store i64 %20, ptr %7, align 8
  %21 = load ptr, ptr %5, align 8
  %22 = load i64, ptr %7, align 8
  call void @_ZN9metaspace14MetaspaceArena21add_allocation_to_fblEPP12MetaWordImplm(ptr noundef nonnull align 8 dereferenceable(56) %8, ptr noundef %21, i64 noundef %22)
  ret void
}