; Function Attrs: mustprogress nounwind uwtable
define hidden void @_ZN9metaspace14MetaspaceArena10deallocateEPP12MetaWordImplm(ptr noundef nonnull align 8 dereferenceable(56) %0, ptr noundef %1, i64 noundef %2) local_unnamed_addr #1 align 2 {
  %4 = load volatile ptr, ptr getelementptr inbounds (i8, ptr @_ZN16LogTagSetMappingILN6LogTag4typeE84ELS1_0ELS1_0ELS1_0ELS1_0ELS1_0EE7_tagsetE, i64 48), align 8
  %.not = icmp eq ptr %4, null
  br i1 %.not, label %10, label %5

5:                                                ; preds = %3
  %6 = ptrtoint ptr %0 to i64
  %7 = getelementptr inbounds i8, ptr %0, i64 48
  %8 = load ptr, ptr %7, align 8
  %9 = ptrtoint ptr %1 to i64
  tail call void (ptr, ...) @_ZN7LogImplILN6LogTag4typeE84ELS1_0ELS1_0ELS1_0ELS1_0ELS1_0EE5writeILN8LogLevel4typeE1EEEvPKcz(ptr noundef nonnull @.str.20, i64 noundef %6, ptr noundef %8, i64 noundef %9, i64 noundef %2)
  br label %10

10:                                               ; preds = %3, %5
  %11 = getelementptr inbounds i8, ptr %0, i64 32
  %12 = load ptr, ptr %11, align 8
  %13 = icmp eq ptr %12, null
  br i1 %13, label %14, label %_ZN9metaspace14MetaspaceArena21add_allocation_to_fblEPP12MetaWordImplm.exit

14:                                               ; preds = %10
  %15 = tail call noundef ptr @_Z12AllocateHeapm8MEMFLAGSN17AllocFailStrategy13AllocFailEnumE(i64 noundef 304, i8 noundef zeroext 24, i32 noundef 0) #9
  %16 = getelementptr inbounds i8, ptr %15, i64 296
  tail call void @llvm.memset.p0.i64(ptr noundef nonnull align 8 dereferenceable(296) %15, i8 0, i64 296, i1 false)
  store i64 32, ptr %16, align 8
  store ptr %15, ptr %11, align 8
  br label %_ZN9metaspace14MetaspaceArena21add_allocation_to_fblEPP12MetaWordImplm.exit

_ZN9metaspace14MetaspaceArena21add_allocation_to_fblEPP12MetaWordImplm.exit: ; preds = %10, %14
  %17 = phi ptr [ %15, %14 ], [ %12, %10 ]
  tail call void @_ZN9metaspace10FreeBlocks9add_blockEPP12MetaWordImplm(ptr noundef nonnull align 8 dereferenceable(304) %17, ptr noundef %1, i64 noundef %2) #9
  ret void
}